target datalayout = "e-m:e-p270:32:32-p271:32:32-p272:64:64-i64:64-i128:128-f80:128-n8:16:32:64-S128"
target triple = "x86_64-pc-linux-gnu"

%struct.Aig_Man_t_ = type { ptr, ptr, ptr, ptr, ptr, ptr, ptr, %struct.Aig_Obj_t_, i32, i32, i32, i32, i32, i32, [7 x i32], i32, ptr, i32, ptr, i32, ptr, i32, i32, i32, ptr, i32, i32, i32, i32, i32, ptr, ptr, i32, ptr, ptr, i32, ptr, ptr, i32, i32, i32, ptr, ptr, ptr, ptr, ptr, ptr, ptr, ptr, ptr, ptr, ptr, ptr, ptr, ptr, i32, ptr, ptr, ptr, ptr, i32, i64, i64, i64, ptr, ptr }
%struct.Aig_Obj_t_ = type { %union.anon.0, ptr, ptr, i64, i32, i32, %union.anon.1 }
%union.anon.0 = type { ptr }
%union.anon.1 = type { ptr }
%struct.Vec_Ptr_t_ = type { i32, i32, ptr }

@stdout = external global ptr, align 8
@.str.1 = private unnamed_addr constant [51 x i8] c"BDD nodes in the partitions before reordering %d.\0A\00", align 1
@.str.2 = private unnamed_addr constant [50 x i8] c"BDD nodes in the partitions after reordering %d.\0A\00", align 1

; Function Attrs: inlinehint nounwind uwtable
define internal ptr @Aig_ObjGlobalBdd(ptr noundef %0) #5 {
  %2 = alloca ptr, align 8
  store ptr %0, ptr %2, align 8, !tbaa !57
  %3 = load ptr, ptr %2, align 8, !tbaa !57
  %4 = getelementptr inbounds nuw %struct.Aig_Obj_t_, ptr %3, i32 0, i32 6
  %5 = load ptr, ptr %4, align 8, !tbaa !68
  ret ptr %5
}

; Function Attrs: inlinehint nounwind uwtable
define internal ptr @Vec_PtrEntry(ptr noundef %0, i32 noundef %1) #5 {
  %3 = alloca ptr, align 8
  %4 = alloca i32, align 4
  store ptr %0, ptr %3, align 8, !tbaa !60
  store i32 %1, ptr %4, align 4, !tbaa !21
  %5 = load ptr, ptr %3, align 8, !tbaa !60
  %6 = getelementptr inbounds nuw %struct.Vec_Ptr_t_, ptr %5, i32 0, i32 2
  %7 = load ptr, ptr %6, align 8, !tbaa !61
  %8 = load i32, ptr %4, align 4, !tbaa !21
  %9 = sext i32 %8 to i64
  %10 = getelementptr inbounds ptr, ptr %7, i64 %9
  %11 = load ptr, ptr %10, align 8, !tbaa !63
  ret ptr %11
}

; Function Attrs: inlinehint nounwind uwtable
define internal i32 @Saig_ManPoNum(ptr noundef %0) #5 {
  %2 = alloca ptr, align 8
  store ptr %0, ptr %2, align 8, !tbaa !43
  %3 = load ptr, ptr %2, align 8, !tbaa !43
  %4 = getelementptr inbounds nuw %struct.Aig_Man_t_, ptr %3, i32 0, i32 10
  %5 = load i32, ptr %4, align 8, !tbaa !67
  ret i32 %5
}

; Function Attrs: inlinehint nounwind uwtable
define internal i32 @Saig_ManRegNum(ptr noundef %0) #5 {
  %2 = alloca ptr, align 8
  store ptr %0, ptr %2, align 8, !tbaa !43
  %3 = load ptr, ptr %2, align 8, !tbaa !43
  %4 = getelementptr inbounds nuw %struct.Aig_Man_t_, ptr %3, i32 0, i32 8
  %5 = load i32, ptr %4, align 8, !tbaa !59
  ret i32 %5
}

; Function Attrs: inlinehint nounwind uwtable
define internal i32 @Saig_ManCiNum(ptr noundef %0) #5 {
  %2 = alloca ptr, align 8
  store ptr %0, ptr %2, align 8, !tbaa !43
  %3 = load ptr, ptr %2, align 8, !tbaa !43
  %4 = getelementptr inbounds nuw %struct.Aig_Man_t_, ptr %3, i32 0, i32 9
  %5 = load i32, ptr %4, align 4, !tbaa !64
  %6 = load ptr, ptr %2, align 8, !tbaa !43
  %7 = getelementptr inbounds nuw %struct.Aig_Man_t_, ptr %6, i32 0, i32 8
  %8 = load i32, ptr %7, align 8, !tbaa !59
  %9 = add nsw i32 %5, %8
  ret i32 %9
}

; Function Attrs: nounwind uwtable
define ptr @Aig_ManCreatePartitions(ptr noundef %0, ptr noundef %1, i32 noundef %2, i32 noundef %3) #0 {
  %5 = alloca ptr, align 8
  %6 = alloca ptr, align 8
  %7 = alloca i32, align 4
  %8 = alloca i32, align 4
  %9 = alloca ptr, align 8
  %10 = alloca ptr, align 8
  %11 = alloca ptr, align 8
  %12 = alloca i32, align 4
  store ptr %0, ptr %5, align 8, !tbaa !19
  store ptr %1, ptr %6, align 8, !tbaa !43
  store i32 %2, ptr %7, align 4, !tbaa !21
  store i32 %3, ptr %8, align 4, !tbaa !21
  call void @llvm.lifetime.start.p0(i64 8, ptr %9) #10
  call void @llvm.lifetime.start.p0(i64 8, ptr %10) #10
  call void @llvm.lifetime.start.p0(i64 8, ptr %11) #10
  call void @llvm.lifetime.start.p0(i64 4, ptr %12) #10
  %13 = load ptr, ptr %5, align 8, !tbaa !19
  %14 = load ptr, ptr %6, align 8, !tbaa !43
  %15 = call i32 @Saig_ManCiNum(ptr noundef %14)
  %16 = load ptr, ptr %6, align 8, !tbaa !43
  %17 = call i32 @Saig_ManRegNum(ptr noundef %16)
  %18 = add nsw i32 %15, %17
  %19 = sub nsw i32 %18, 1
  %20 = call ptr @Cudd_bddIthVar(ptr noundef %13, i32 noundef %19)
  %21 = load i32, ptr %7, align 4, !tbaa !21
  %22 = icmp ne i32 %21, 0
  br i1 %22, label %23, label %25

23:                                               ; preds = %4
  %24 = load ptr, ptr %5, align 8, !tbaa !19
  call void @Cudd_AutodynEnable(ptr noundef %24, i32 noundef 6)
  br label %27

25:                                               ; preds = %4
  %26 = load ptr, ptr %5, align 8, !tbaa !19
  call void @Cudd_AutodynDisable(ptr noundef %26)
  br label %27

27:                                               ; preds = %25, %23
  %28 = load ptr, ptr %6, align 8, !tbaa !43
  %29 = call i32 @Saig_ManRegNum(ptr noundef %28)
  %30 = sext i32 %29 to i64
  %31 = mul i64 8, %30
  %32 = call noalias ptr @malloc(i64 noundef %31) #11
  store ptr %32, ptr %9, align 8, !tbaa !46
  store i32 0, ptr %12, align 4, !tbaa !21
  br label %33

33:                                               ; preds = %70, %27
  %34 = load i32, ptr %12, align 4, !tbaa !21
  %35 = load ptr, ptr %6, align 8, !tbaa !43
  %36 = call i32 @Saig_ManRegNum(ptr noundef %35)
  %37 = icmp slt i32 %34, %36
  br i1 %37, label %38, label %47

38:                                               ; preds = %33
  %39 = load ptr, ptr %6, align 8, !tbaa !43
  %40 = getelementptr inbounds nuw %struct.Aig_Man_t_, ptr %39, i32 0, i32 3
  %41 = load ptr, ptr %40, align 8, !tbaa !65
  %42 = load i32, ptr %12, align 4, !tbaa !21
  %43 = load ptr, ptr %6, align 8, !tbaa !43
  %44 = call i32 @Saig_ManPoNum(ptr noundef %43)
  %45 = add nsw i32 %42, %44
  %46 = call ptr @Vec_PtrEntry(ptr noundef %41, i32 noundef %45)
  store ptr %46, ptr %11, align 8, !tbaa !57
  br label %47

47:                                               ; preds = %38, %33
  %48 = phi i1 [ false, %33 ], [ true, %38 ]
  br i1 %48, label %49, label %73

49:                                               ; preds = %47
  %50 = load ptr, ptr %5, align 8, !tbaa !19
  %51 = load ptr, ptr %6, align 8, !tbaa !43
  %52 = call i32 @Saig_ManCiNum(ptr noundef %51)
  %53 = load i32, ptr %12, align 4, !tbaa !21
  %54 = add nsw i32 %52, %53
  %55 = call ptr @Cudd_bddIthVar(ptr noundef %50, i32 noundef %54)
  store ptr %55, ptr %10, align 8, !tbaa !39
  %56 = load ptr, ptr %5, align 8, !tbaa !19
  %57 = load ptr, ptr %10, align 8, !tbaa !39
  %58 = load ptr, ptr %11, align 8, !tbaa !57
  %59 = call ptr @Aig_ObjGlobalBdd(ptr noundef %58)
  %60 = call ptr @Cudd_bddXnor(ptr noundef %56, ptr noundef %57, ptr noundef %59)
  %61 = load ptr, ptr %9, align 8, !tbaa !46
  %62 = load i32, ptr %12, align 4, !tbaa !21
  %63 = sext i32 %62 to i64
  %64 = getelementptr inbounds ptr, ptr %61, i64 %63
  store ptr %60, ptr %64, align 8, !tbaa !39
  %65 = load ptr, ptr %9, align 8, !tbaa !46
  %66 = load i32, ptr %12, align 4, !tbaa !21
  %67 = sext i32 %66 to i64
  %68 = getelementptr inbounds ptr, ptr %65, i64 %67
  %69 = load ptr, ptr %68, align 8, !tbaa !39
  call void @Cudd_Ref(ptr noundef %69)
  br label %70

70:                                               ; preds = %49
  %71 = load i32, ptr %12, align 4, !tbaa !21
  %72 = add nsw i32 %71, 1
  store i32 %72, ptr %12, align 4, !tbaa !21
  br label %33, !llvm.loop !69

73:                                               ; preds = %47
  %74 = load ptr, ptr %6, align 8, !tbaa !43
  %75 = load ptr, ptr %5, align 8, !tbaa !19
  call void @Aig_ManFreeGlobalBdds(ptr noundef %74, ptr noundef %75)
  %76 = load i32, ptr %7, align 4, !tbaa !21
  %77 = icmp ne i32 %76, 0
  br i1 %77, label %78, label %102

78:                                               ; preds = %73
  %79 = load i32, ptr %8, align 4, !tbaa !21
  %80 = icmp ne i32 %79, 0
  br i1 %80, label %81, label %88

81:                                               ; preds = %78
  %82 = load ptr, ptr @stdout, align 8, !tbaa !70
  %83 = load ptr, ptr %9, align 8, !tbaa !46
  %84 = load ptr, ptr %6, align 8, !tbaa !43
  %85 = call i32 @Saig_ManRegNum(ptr noundef %84)
  %86 = call i32 @Cudd_SharingSize(ptr noundef %83, i32 noundef %85)
  %87 = call i32 (ptr, ptr, ...) @fprintf(ptr noundef %82, ptr noundef @.str.1, i32 noundef %86) #10
  br label %88

88:                                               ; preds = %81, %78
  %89 = load ptr, ptr %5, align 8, !tbaa !19
  %90 = call i32 @Cudd_ReduceHeap(ptr noundef %89, i32 noundef 6, i32 noundef 100)
  %91 = load ptr, ptr %5, align 8, !tbaa !19
  call void @Cudd_AutodynDisable(ptr noundef %91)
  %92 = load i32, ptr %8, align 4, !tbaa !21
  %93 = icmp ne i32 %92, 0
  br i1 %93, label %94, label %101

94:                                               ; preds = %88
  %95 = load ptr, ptr @stdout, align 8, !tbaa !70
  %96 = load ptr, ptr %9, align 8, !tbaa !46
  %97 = load ptr, ptr %6, align 8, !tbaa !43
  %98 = call i32 @Saig_ManRegNum(ptr noundef %97)
  %99 = call i32 @Cudd_SharingSize(ptr noundef %96, i32 noundef %98)
  %100 = call i32 (ptr, ptr, ...) @fprintf(ptr noundef %95, ptr noundef @.str.2, i32 noundef %99) #10
  br label %101

101:                                              ; preds = %94, %88
  br label %102

102:                                              ; preds = %101, %73
  %103 = load ptr, ptr %9, align 8, !tbaa !46
  call void @llvm.lifetime.end.p0(i64 4, ptr %12) #10
  call void @llvm.lifetime.end.p0(i64 8, ptr %11) #10
  call void @llvm.lifetime.end.p0(i64 8, ptr %10) #10
  call void @llvm.lifetime.end.p0(i64 8, ptr %9) #10
  ret ptr %103
}