; Function Attrs: nounwind uwtable
define noundef ptr @Aig_ManCreatePartitions(ptr noundef %0, ptr noundef %1, i32 noundef %2, i32 noundef %3) local_unnamed_addr #2 {
  %5 = getelementptr i8, ptr %1, i64 104
  %.val44 = load i32, ptr %5, align 8, !tbaa !37
  %6 = getelementptr i8, ptr %1, i64 108
  %.val45 = load i32, ptr %6, align 4, !tbaa !48
  %reass.add = shl i32 %.val44, 1
  %7 = add i32 %reass.add, -1
  %8 = add i32 %7, %.val45
  %9 = tail call ptr @Cudd_bddIthVar(ptr noundef %0, i32 noundef %8) #15
  %.not = icmp eq i32 %2, 0
  br i1 %.not, label %11, label %10

10:                                               ; preds = %4
  tail call void @Cudd_AutodynEnable(ptr noundef %0, i32 noundef 6) #15
  br label %12

11:                                               ; preds = %4
  tail call void @Cudd_AutodynDisable(ptr noundef %0) #15
  br label %12

12:                                               ; preds = %11, %10
  %.val39 = load i32, ptr %5, align 8, !tbaa !37
  %13 = sext i32 %.val39 to i64
  %14 = shl nsw i64 %13, 3
  %15 = tail call noalias ptr @malloc(i64 noundef %14) #16
  %16 = icmp sgt i32 %.val39, 0
  br i1 %16, label %.lr.ph, label %.critedge

.lr.ph:                                           ; preds = %12
  %17 = getelementptr inbounds nuw i8, ptr %1, i64 24
  %18 = getelementptr i8, ptr %1, i64 112
  br label %19

19:                                               ; preds = %.lr.ph, %19
  %indvars.iv = phi i64 [ 0, %.lr.ph ], [ %indvars.iv.next, %19 ]
  %.val3850 = phi i32 [ %.val39, %.lr.ph ], [ %.val38, %19 ]
  %20 = load ptr, ptr %17, align 8, !tbaa !51
  %.val46 = load i32, ptr %18, align 8, !tbaa !50
  %21 = trunc nuw nsw i64 %indvars.iv to i32
  %22 = add nsw i32 %.val46, %21
  %23 = getelementptr i8, ptr %20, i64 8
  %.val41 = load ptr, ptr %23, align 8, !tbaa !52
  %24 = sext i32 %22 to i64
  %25 = getelementptr inbounds ptr, ptr %.val41, i64 %24
  %26 = load ptr, ptr %25, align 8, !tbaa !54
  %.val43 = load i32, ptr %6, align 4, !tbaa !48
  %27 = add i32 %.val3850, %21
  %28 = add i32 %27, %.val43
  %29 = tail call ptr @Cudd_bddIthVar(ptr noundef %0, i32 noundef %28) #15
  %30 = getelementptr i8, ptr %26, i64 40
  %.val47 = load ptr, ptr %30, align 8, !tbaa !55
  %31 = tail call ptr @Cudd_bddXnor(ptr noundef %0, ptr noundef %29, ptr noundef %.val47) #15
  %32 = getelementptr inbounds nuw ptr, ptr %15, i64 %indvars.iv
  store ptr %31, ptr %32, align 8, !tbaa !33
  tail call void @Cudd_Ref(ptr noundef %31) #15
  %indvars.iv.next = add nuw nsw i64 %indvars.iv, 1
  %.val38 = load i32, ptr %5, align 8, !tbaa !37
  %33 = sext i32 %.val38 to i64
  %34 = icmp slt i64 %indvars.iv.next, %33
  br i1 %34, label %19, label %.critedge, !llvm.loop !57

.critedge:                                        ; preds = %19, %12
  tail call void @Aig_ManFreeGlobalBdds(ptr noundef nonnull %1, ptr noundef %0) #15
  br i1 %.not, label %45, label %35

35:                                               ; preds = %.critedge
  %.not34 = icmp eq i32 %3, 0
  br i1 %.not34, label %.critedge36, label %36

36:                                               ; preds = %35
  %37 = load ptr, ptr @stdout, align 8, !tbaa !58
  %.val37 = load i32, ptr %5, align 8, !tbaa !37
  %38 = tail call i32 @Cudd_SharingSize(ptr noundef %15, i32 noundef %.val37) #15
  %39 = tail call i32 (ptr, ptr, ...) @fprintf(ptr noundef %37, ptr noundef nonnull @.str.1, i32 noundef %38) #15
  %40 = tail call i32 @Cudd_ReduceHeap(ptr noundef %0, i32 noundef 6, i32 noundef 100) #15
  tail call void @Cudd_AutodynDisable(ptr noundef %0) #15
  %41 = load ptr, ptr @stdout, align 8, !tbaa !58
  %.val = load i32, ptr %5, align 8, !tbaa !37
  %42 = tail call i32 @Cudd_SharingSize(ptr noundef %15, i32 noundef %.val) #15
  %43 = tail call i32 (ptr, ptr, ...) @fprintf(ptr noundef %41, ptr noundef nonnull @.str.2, i32 noundef %42) #15
  br label %45

.critedge36:                                      ; preds = %35
  %44 = tail call i32 @Cudd_ReduceHeap(ptr noundef %0, i32 noundef 6, i32 noundef 100) #15
  tail call void @Cudd_AutodynDisable(ptr noundef %0) #15
  br label %45

45:                                               ; preds = %.critedge36, %36, %.critedge
  ret ptr %15
}